target datalayout = "e-m:e-p270:32:32-p271:32:32-p272:64:64-i64:64-i128:128-f80:128-n8:16:32:64-S128"
target triple = "x86_64-unknown-linux-gnu"

%"class.std::vector" = type { %"struct.std::_Vector_base" }
%"struct.std::_Vector_base" = type { %"struct.std::_Vector_base<double, std::allocator<double>>::_Vector_impl" }
%"struct.std::_Vector_base<double, std::allocator<double>>::_Vector_impl" = type { %"struct.std::_Vector_base<double, std::allocator<double>>::_Vector_impl_data" }
%"struct.std::_Vector_base<double, std::allocator<double>>::_Vector_impl_data" = type { ptr, ptr, ptr }
%"class.QuantLib::EvolutionDescription" = type { i64, %"class.std::vector", %"class.std::vector", %"class.std::vector.0", %"class.std::vector", %"class.std::vector.5" }
%"class.std::vector.0" = type { %"struct.std::_Vector_base.1" }
%"struct.std::_Vector_base.1" = type { %"struct.std::_Vector_base<std::pair<unsigned long, unsigned long>, std::allocator<std::pair<unsigned long, unsigned long>>>::_Vector_impl" }
%"struct.std::_Vector_base<std::pair<unsigned long, unsigned long>, std::allocator<std::pair<unsigned long, unsigned long>>>::_Vector_impl" = type { %"struct.std::_Vector_base<std::pair<unsigned long, unsigned long>, std::allocator<std::pair<unsigned long, unsigned long>>>::_Vector_impl_data" }
%"struct.std::_Vector_base<std::pair<unsigned long, unsigned long>, std::allocator<std::pair<unsigned long, unsigned long>>>::_Vector_impl_data" = type { ptr, ptr, ptr }
%"class.std::vector.5" = type { %"struct.std::_Vector_base.6" }
%"struct.std::_Vector_base.6" = type { %"struct.std::_Vector_base<unsigned long, std::allocator<unsigned long>>::_Vector_impl" }
%"struct.std::_Vector_base<unsigned long, std::allocator<unsigned long>>::_Vector_impl" = type { %"struct.std::_Vector_base<unsigned long, std::allocator<unsigned long>>::_Vector_impl_data" }
%"struct.std::_Vector_base<unsigned long, std::allocator<unsigned long>>::_Vector_impl_data" = type { ptr, ptr, ptr }
%"class.std::valarray" = type { i64, ptr }
%"class.QuantLib::NothingExerciseValue" = type { %"class.QuantLib::MarketModelExerciseValue", i64, %"class.std::vector", %"class.std::valarray", %"class.QuantLib::EvolutionDescription", i64, %"struct.QuantLib::MarketModelMultiProduct::CashFlow" }
%"class.QuantLib::MarketModelExerciseValue" = type { ptr }
%"struct.QuantLib::MarketModelMultiProduct::CashFlow" = type { i64, double }

; Function Attrs: inlinehint mustprogress nounwind uwtable
define linkonce_odr void @_ZNSt16_Array_copy_ctorIbLb1EE8_S_do_itEPKbS2_Pb(ptr noundef %__b, ptr noundef %__e, ptr noalias noundef %__o) #1 comdat align 2 {
entry:
  %__b.addr = alloca ptr, align 8
  %__e.addr = alloca ptr, align 8
  %__o.addr = alloca ptr, align 8
  store ptr %__b, ptr %__b.addr, align 8, !tbaa !3
  store ptr %__e, ptr %__e.addr, align 8, !tbaa !3
  store ptr %__o, ptr %__o.addr, align 8, !tbaa !3
  %0 = load ptr, ptr %__b.addr, align 8, !tbaa !3
  %tobool = icmp ne ptr %0, null
  br i1 %tobool, label %if.then, label %if.end

if.then:                                          ; preds = %entry
  %1 = load ptr, ptr %__o.addr, align 8, !tbaa !3
  %2 = load ptr, ptr %__b.addr, align 8, !tbaa !3
  %3 = load ptr, ptr %__e.addr, align 8, !tbaa !3
  %4 = load ptr, ptr %__b.addr, align 8, !tbaa !3
  %sub.ptr.lhs.cast = ptrtoint ptr %3 to i64
  %sub.ptr.rhs.cast = ptrtoint ptr %4 to i64
  %sub.ptr.sub = sub i64 %sub.ptr.lhs.cast, %sub.ptr.rhs.cast
  %mul = mul i64 %sub.ptr.sub, 1
  call void @llvm.memcpy.p0.p0.i64(ptr align 1 %1, ptr align 1 %2, i64 %mul, i1 false)
  br label %if.end

if.end:                                           ; preds = %if.then, %entry
  ret void
}

; Function Attrs: inlinehint mustprogress uwtable
define linkonce_odr void @_ZSt25__valarray_copy_constructIbEvPKT_S2_PS0_(ptr noundef %__b, ptr noundef %__e, ptr noalias noundef %__o) #5 comdat {
entry:
  %__b.addr = alloca ptr, align 8
  %__e.addr = alloca ptr, align 8
  %__o.addr = alloca ptr, align 8
  store ptr %__b, ptr %__b.addr, align 8, !tbaa !3
  store ptr %__e, ptr %__e.addr, align 8, !tbaa !3
  store ptr %__o, ptr %__o.addr, align 8, !tbaa !3
  %0 = load ptr, ptr %__b.addr, align 8, !tbaa !3
  %1 = load ptr, ptr %__e.addr, align 8, !tbaa !3
  %2 = load ptr, ptr %__o.addr, align 8, !tbaa !3
  call void @_ZNSt16_Array_copy_ctorIbLb1EE8_S_do_itEPKbS2_Pb(ptr noundef %0, ptr noundef %1, ptr noundef %2)
  ret void
}

; Function Attrs: inlinehint mustprogress uwtable
define linkonce_odr noalias noundef ptr @_ZSt22__valarray_get_storageIbEPT_m(i64 noundef %__n) #5 comdat {
entry:
  %__n.addr = alloca i64, align 8
  store i64 %__n, ptr %__n.addr, align 8, !tbaa !33
  %0 = load i64, ptr %__n.addr, align 8, !tbaa !33
  %mul = mul i64 %0, 1
  %call = call noalias noundef nonnull ptr @_Znwm(i64 noundef %mul) #21
  ret ptr %call
}

; Function Attrs: inlinehint mustprogress uwtable
define linkonce_odr void @_ZNSt8valarrayIbEC2ERKS0_(ptr noundef nonnull align 8 dereferenceable(16) %this, ptr noundef nonnull align 8 dereferenceable(16) %__v) unnamed_addr #5 comdat align 2 {
entry:
  %this.addr = alloca ptr, align 8
  %__v.addr = alloca ptr, align 8
  store ptr %this, ptr %this.addr, align 8, !tbaa !3
  store ptr %__v, ptr %__v.addr, align 8, !tbaa !3
  %this1 = load ptr, ptr %this.addr, align 8
  %_M_size = getelementptr inbounds nuw %"class.std::valarray", ptr %this1, i32 0, i32 0
  %0 = load ptr, ptr %__v.addr, align 8, !tbaa !3
  %_M_size2 = getelementptr inbounds nuw %"class.std::valarray", ptr %0, i32 0, i32 0
  %1 = load i64, ptr %_M_size2, align 8, !tbaa !40
  store i64 %1, ptr %_M_size, align 8, !tbaa !40
  %_M_data = getelementptr inbounds nuw %"class.std::valarray", ptr %this1, i32 0, i32 1
  %2 = load ptr, ptr %__v.addr, align 8, !tbaa !3
  %_M_size3 = getelementptr inbounds nuw %"class.std::valarray", ptr %2, i32 0, i32 0
  %3 = load i64, ptr %_M_size3, align 8, !tbaa !40
  %call = call noalias noundef ptr @_ZSt22__valarray_get_storageIbEPT_m(i64 noundef %3)
  store ptr %call, ptr %_M_data, align 8, !tbaa !41
  %4 = load ptr, ptr %__v.addr, align 8, !tbaa !3
  %_M_data4 = getelementptr inbounds nuw %"class.std::valarray", ptr %4, i32 0, i32 1
  %5 = load ptr, ptr %_M_data4, align 8, !tbaa !41
  %6 = load ptr, ptr %__v.addr, align 8, !tbaa !3
  %_M_data5 = getelementptr inbounds nuw %"class.std::valarray", ptr %6, i32 0, i32 1
  %7 = load ptr, ptr %_M_data5, align 8, !tbaa !41
  %_M_size6 = getelementptr inbounds nuw %"class.std::valarray", ptr %this1, i32 0, i32 0
  %8 = load i64, ptr %_M_size6, align 8, !tbaa !40
  %add.ptr = getelementptr inbounds nuw i8, ptr %7, i64 %8
  %_M_data7 = getelementptr inbounds nuw %"class.std::valarray", ptr %this1, i32 0, i32 1
  %9 = load ptr, ptr %_M_data7, align 8, !tbaa !41
  call void @_ZSt25__valarray_copy_constructIbEvPKT_S2_PS0_(ptr noundef %5, ptr noundef %add.ptr, ptr noundef %9)
  ret void
}

; Function Attrs: mustprogress uwtable
define void @_ZNK8QuantLib20NothingExerciseValue14isExerciseTimeEv(ptr dead_on_unwind noalias writable sret(%"class.std::valarray") align 8 %agg.result, ptr noundef nonnull align 8 dereferenceable(208) %this) unnamed_addr #0 align 2 {
entry:
  %result.ptr = alloca ptr, align 8
  %this.addr = alloca ptr, align 8
  store ptr %agg.result, ptr %result.ptr, align 8
  store ptr %this, ptr %this.addr, align 8, !tbaa !3
  %this1 = load ptr, ptr %this.addr, align 8
  %isExerciseTime_ = getelementptr inbounds nuw %"class.QuantLib::NothingExerciseValue", ptr %this1, i32 0, i32 3
  call void @_ZNSt8valarrayIbEC2ERKS0_(ptr noundef nonnull align 8 dereferenceable(16) %agg.result, ptr noundef nonnull align 8 dereferenceable(16) %isExerciseTime_)
  ret void
}