; Function Attrs: mustprogress uwtable
define void @_ZNK8QuantLib20NothingExerciseValue14isExerciseTimeEv(ptr dead_on_unwind noalias nocapture writable writeonly sret(%"class.std::valarray") align 8 %agg.result, ptr nocapture noundef nonnull readonly align 8 dereferenceable(208) %this) unnamed_addr #0 align 2 {
entry:
  %isExerciseTime_ = getelementptr inbounds nuw i8, ptr %this, i64 40
  %0 = load i64, ptr %isExerciseTime_, align 8, !tbaa !14
  store i64 %0, ptr %agg.result, align 8, !tbaa !14
  %_M_data.i = getelementptr inbounds nuw i8, ptr %agg.result, i64 8
  %call.i.i = tail call noalias noundef nonnull ptr @_Znwm(i64 noundef %0) #25
  store ptr %call.i.i, ptr %_M_data.i, align 8, !tbaa !17
  %_M_data4.i = getelementptr inbounds nuw i8, ptr %this, i64 48
  %1 = load ptr, ptr %_M_data4.i, align 8, !tbaa !17
  %tobool.not.i.i.i = icmp eq ptr %1, null
  br i1 %tobool.not.i.i.i, label %_ZNSt8valarrayIbEC2ERKS0_.exit, label %if.then.i.i.i

if.then.i.i.i:                                    ; preds = %entry
  tail call void @llvm.memcpy.p0.p0.i64(ptr nonnull align 1 %call.i.i, ptr nonnull align 1 %1, i64 %0, i1 false)
  br label %_ZNSt8valarrayIbEC2ERKS0_.exit

_ZNSt8valarrayIbEC2ERKS0_.exit:                   ; preds = %entry, %if.then.i.i.i
  ret void
}